target datalayout = "e-m:e-p270:32:32-p271:32:32-p272:64:64-i64:64-i128:128-f80:128-n8:16:32:64-S128"
target triple = "x86_64-pc-linux-gnu"

%struct.Session = type { ptr, ptr, ptr, ptr, ptr }
%struct.SharedRecordTypmodRegistry = type { i64, i64, %struct.pg_atomic_uint32 }
%struct.pg_atomic_uint32 = type { i32 }

@TopMemoryContext = external global ptr, align 8
@CurrentSession = external global ptr, align 8
@CurrentMemoryContext = external global ptr, align 8
@srtr_record_table_params = internal constant { i64, i64, ptr, ptr, ptr, i32, [4 x i8] } { i64 16, i64 16, ptr @shared_record_table_compare, ptr @shared_record_table_hash, ptr @dshash_memcpy, i32 71, [4 x i8] zeroinitializer }, align 8
@srtr_typmod_table_params = internal constant { i64, i64, ptr, ptr, ptr, i32, [4 x i8] } { i64 4, i64 16, ptr @dshash_memcmp, ptr @dshash_memhash, ptr @dshash_memcpy, i32 72, [4 x i8] zeroinitializer }, align 8

; Function Attrs: inlinehint nounwind uwtable
define internal i64 @PointerGetDatum(ptr noundef %0) #3 {
  %2 = alloca ptr, align 8
  store ptr %0, ptr %2, align 8
  %3 = load ptr, ptr %2, align 8
  %4 = ptrtoint ptr %3 to i64
  ret i64 %4
}

; Function Attrs: inlinehint nounwind uwtable
define internal ptr @MemoryContextSwitchTo(ptr noundef %0) #3 {
  %2 = alloca ptr, align 8
  %3 = alloca ptr, align 8
  store ptr %0, ptr %2, align 8
  call void @llvm.lifetime.start.p0(i64 8, ptr %3) #11
  %4 = load ptr, ptr @CurrentMemoryContext, align 8
  store ptr %4, ptr %3, align 8
  %5 = load ptr, ptr %2, align 8
  store ptr %5, ptr @CurrentMemoryContext, align 8
  %6 = load ptr, ptr %3, align 8
  call void @llvm.lifetime.end.p0(i64 8, ptr %3) #11
  ret ptr %6
}

; Function Attrs: nounwind uwtable
define dso_local void @SharedRecordTypmodRegistryAttach(ptr noundef %0) #0 {
  %2 = alloca ptr, align 8
  %3 = alloca ptr, align 8
  %4 = alloca ptr, align 8
  %5 = alloca ptr, align 8
  store ptr %0, ptr %2, align 8
  call void @llvm.lifetime.start.p0(i64 8, ptr %3) #11
  call void @llvm.lifetime.start.p0(i64 8, ptr %4) #11
  call void @llvm.lifetime.start.p0(i64 8, ptr %5) #11
  %6 = load ptr, ptr @TopMemoryContext, align 8
  %7 = call ptr @MemoryContextSwitchTo(ptr noundef %6)
  store ptr %7, ptr %3, align 8
  %8 = load ptr, ptr @CurrentSession, align 8
  %9 = getelementptr inbounds nuw %struct.Session, ptr %8, i32 0, i32 1
  %10 = load ptr, ptr %9, align 8
  %11 = load ptr, ptr %2, align 8
  %12 = getelementptr inbounds nuw %struct.SharedRecordTypmodRegistry, ptr %11, i32 0, i32 0
  %13 = load i64, ptr %12, align 8
  %14 = load ptr, ptr @CurrentSession, align 8
  %15 = getelementptr inbounds nuw %struct.Session, ptr %14, i32 0, i32 1
  %16 = load ptr, ptr %15, align 8
  %17 = call ptr @dshash_attach(ptr noundef %10, ptr noundef @srtr_record_table_params, i64 noundef %13, ptr noundef %16)
  store ptr %17, ptr %4, align 8
  %18 = load ptr, ptr @CurrentSession, align 8
  %19 = getelementptr inbounds nuw %struct.Session, ptr %18, i32 0, i32 1
  %20 = load ptr, ptr %19, align 8
  %21 = load ptr, ptr %2, align 8
  %22 = getelementptr inbounds nuw %struct.SharedRecordTypmodRegistry, ptr %21, i32 0, i32 1
  %23 = load i64, ptr %22, align 8
  %24 = call ptr @dshash_attach(ptr noundef %20, ptr noundef @srtr_typmod_table_params, i64 noundef %23, ptr noundef null)
  store ptr %24, ptr %5, align 8
  %25 = load ptr, ptr %3, align 8
  %26 = call ptr @MemoryContextSwitchTo(ptr noundef %25)
  %27 = load ptr, ptr @CurrentSession, align 8
  %28 = getelementptr inbounds nuw %struct.Session, ptr %27, i32 0, i32 0
  %29 = load ptr, ptr %28, align 8
  %30 = load ptr, ptr %2, align 8
  %31 = call i64 @PointerGetDatum(ptr noundef %30)
  call void @on_dsm_detach(ptr noundef %29, ptr noundef @shared_record_typmod_registry_detach, i64 noundef %31)
  %32 = load ptr, ptr %2, align 8
  %33 = load ptr, ptr @CurrentSession, align 8
  %34 = getelementptr inbounds nuw %struct.Session, ptr %33, i32 0, i32 2
  store ptr %32, ptr %34, align 8
  %35 = load ptr, ptr %4, align 8
  %36 = load ptr, ptr @CurrentSession, align 8
  %37 = getelementptr inbounds nuw %struct.Session, ptr %36, i32 0, i32 3
  store ptr %35, ptr %37, align 8
  %38 = load ptr, ptr %5, align 8
  %39 = load ptr, ptr @CurrentSession, align 8
  %40 = getelementptr inbounds nuw %struct.Session, ptr %39, i32 0, i32 4
  store ptr %38, ptr %40, align 8
  call void @llvm.lifetime.end.p0(i64 8, ptr %5) #11
  call void @llvm.lifetime.end.p0(i64 8, ptr %4) #11
  call void @llvm.lifetime.end.p0(i64 8, ptr %3) #11
  ret void
}