; Function Attrs: nounwind uwtable
define dso_local void @SharedRecordTypmodRegistryAttach(ptr noundef %0) local_unnamed_addr #0 {
  %2 = load ptr, ptr @TopMemoryContext, align 8
  %3 = load ptr, ptr @CurrentMemoryContext, align 8
  store ptr %2, ptr @CurrentMemoryContext, align 8
  %4 = load ptr, ptr @CurrentSession, align 8
  %5 = getelementptr inbounds nuw i8, ptr %4, i64 8
  %6 = load ptr, ptr %5, align 8
  %7 = load i64, ptr %0, align 8
  %8 = tail call ptr @dshash_attach(ptr noundef %6, ptr noundef nonnull @srtr_record_table_params, i64 noundef %7, ptr noundef %6) #16
  %9 = load ptr, ptr @CurrentSession, align 8
  %10 = getelementptr inbounds nuw i8, ptr %9, i64 8
  %11 = load ptr, ptr %10, align 8
  %12 = getelementptr inbounds nuw i8, ptr %0, i64 8
  %13 = load i64, ptr %12, align 8
  %14 = tail call ptr @dshash_attach(ptr noundef %11, ptr noundef nonnull @srtr_typmod_table_params, i64 noundef %13, ptr noundef null) #16
  store ptr %3, ptr @CurrentMemoryContext, align 8
  %15 = load ptr, ptr @CurrentSession, align 8
  %16 = load ptr, ptr %15, align 8
  %17 = ptrtoint ptr %0 to i64
  tail call void @on_dsm_detach(ptr noundef %16, ptr noundef nonnull @shared_record_typmod_registry_detach, i64 noundef %17) #16
  %18 = load ptr, ptr @CurrentSession, align 8
  %19 = getelementptr inbounds nuw i8, ptr %18, i64 16
  store ptr %0, ptr %19, align 8
  %20 = getelementptr inbounds nuw i8, ptr %18, i64 24
  store ptr %8, ptr %20, align 8
  %21 = getelementptr inbounds nuw i8, ptr %18, i64 32
  store ptr %14, ptr %21, align 8
  ret void
}